target datalayout = "e-m:e-p270:32:32-p271:32:32-p272:64:64-i64:64-i128:128-f80:128-n8:16:32:64-S128"
target triple = "x86_64-pc-linux-gnu"

@.str.4 = private unnamed_addr constant [2 x i8] c"$\00", align 1
@.str.5 = private unnamed_addr constant [2 x i8] c":\00", align 1
@.str.6 = private unnamed_addr constant [14 x i8] c"SCRAM-SHA-256\00", align 1

; Function Attrs: nounwind uwtable
define dso_local zeroext i1 @parse_scram_secret(ptr noundef %0, ptr noundef %1, ptr noundef %2, ptr noundef %3, ptr noundef %4, ptr noundef %5, ptr noundef %6) #0 {
  %8 = alloca i1, align 1
  %9 = alloca ptr, align 8
  %10 = alloca ptr, align 8
  %11 = alloca ptr, align 8
  %12 = alloca ptr, align 8
  %13 = alloca ptr, align 8
  %14 = alloca ptr, align 8
  %15 = alloca ptr, align 8
  %16 = alloca ptr, align 8
  %17 = alloca ptr, align 8
  %18 = alloca ptr, align 8
  %19 = alloca ptr, align 8
  %20 = alloca ptr, align 8
  %21 = alloca ptr, align 8
  %22 = alloca ptr, align 8
  %23 = alloca i32, align 4
  %24 = alloca ptr, align 8
  %25 = alloca ptr, align 8
  %26 = alloca ptr, align 8
  %27 = alloca i32, align 4
  store ptr %0, ptr %9, align 8
  store ptr %1, ptr %10, align 8
  store ptr %2, ptr %11, align 8
  store ptr %3, ptr %12, align 8
  store ptr %4, ptr %13, align 8
  store ptr %5, ptr %14, align 8
  store ptr %6, ptr %15, align 8
  call void @llvm.lifetime.start.p0(i64 8, ptr %16) #9
  call void @llvm.lifetime.start.p0(i64 8, ptr %17) #9
  call void @llvm.lifetime.start.p0(i64 8, ptr %18) #9
  call void @llvm.lifetime.start.p0(i64 8, ptr %19) #9
  call void @llvm.lifetime.start.p0(i64 8, ptr %20) #9
  call void @llvm.lifetime.start.p0(i64 8, ptr %21) #9
  call void @llvm.lifetime.start.p0(i64 8, ptr %22) #9
  call void @llvm.lifetime.start.p0(i64 4, ptr %23) #9
  call void @llvm.lifetime.start.p0(i64 8, ptr %24) #9
  call void @llvm.lifetime.start.p0(i64 8, ptr %25) #9
  call void @llvm.lifetime.start.p0(i64 8, ptr %26) #9
  %28 = load ptr, ptr %9, align 8
  %29 = call ptr @pstrdup(ptr noundef %28)
  store ptr %29, ptr %16, align 8
  %30 = call ptr @strsep(ptr noundef %16, ptr noundef @.str.4) #9
  store ptr %30, ptr %18, align 8
  %31 = load ptr, ptr %16, align 8
  %32 = icmp eq ptr %31, null
  br i1 %32, label %33, label %34

33:                                               ; preds = %7
  br label %144

34:                                               ; preds = %7
  %35 = call ptr @strsep(ptr noundef %16, ptr noundef @.str.5) #9
  store ptr %35, ptr %20, align 8
  %36 = load ptr, ptr %16, align 8
  %37 = icmp eq ptr %36, null
  br i1 %37, label %38, label %39

38:                                               ; preds = %34
  br label %144

39:                                               ; preds = %34
  %40 = call ptr @strsep(ptr noundef %16, ptr noundef @.str.4) #9
  store ptr %40, ptr %19, align 8
  %41 = load ptr, ptr %16, align 8
  %42 = icmp eq ptr %41, null
  br i1 %42, label %43, label %44

43:                                               ; preds = %39
  br label %144

44:                                               ; preds = %39
  %45 = call ptr @strsep(ptr noundef %16, ptr noundef @.str.5) #9
  store ptr %45, ptr %21, align 8
  %46 = load ptr, ptr %16, align 8
  %47 = icmp eq ptr %46, null
  br i1 %47, label %48, label %49

48:                                               ; preds = %44
  br label %144

49:                                               ; preds = %44
  %50 = load ptr, ptr %16, align 8
  store ptr %50, ptr %22, align 8
  %51 = load ptr, ptr %18, align 8
  %52 = call i32 @strcmp(ptr noundef %51, ptr noundef @.str.6) #10
  %53 = icmp ne i32 %52, 0
  br i1 %53, label %54, label %55

54:                                               ; preds = %49
  br label %144

55:                                               ; preds = %49
  %56 = load ptr, ptr %11, align 8
  store i32 3, ptr %56, align 4
  %57 = load ptr, ptr %12, align 8
  store i32 32, ptr %57, align 4
  %58 = call ptr @__errno_location() #12
  store i32 0, ptr %58, align 4
  %59 = load ptr, ptr %20, align 8
  %60 = call i64 @strtol(ptr noundef %59, ptr noundef %17, i32 noundef 10) #9
  %61 = trunc i64 %60 to i32
  %62 = load ptr, ptr %10, align 8
  store i32 %61, ptr %62, align 4
  %63 = load ptr, ptr %17, align 8
  %64 = load i8, ptr %63, align 1
  %65 = sext i8 %64 to i32
  %66 = icmp ne i32 %65, 0
  br i1 %66, label %71, label %67

67:                                               ; preds = %55
  %68 = call ptr @__errno_location() #12
  %69 = load i32, ptr %68, align 4
  %70 = icmp ne i32 %69, 0
  br i1 %70, label %71, label %72

71:                                               ; preds = %67, %55
  br label %144

72:                                               ; preds = %67
  %73 = load ptr, ptr %19, align 8
  %74 = call i64 @strlen(ptr noundef %73) #10
  %75 = trunc i64 %74 to i32
  %76 = call i32 @pg_b64_dec_len(i32 noundef %75)
  store i32 %76, ptr %23, align 4
  %77 = load i32, ptr %23, align 4
  %78 = sext i32 %77 to i64
  %79 = call ptr @palloc(i64 noundef %78)
  store ptr %79, ptr %24, align 8
  %80 = load ptr, ptr %19, align 8
  %81 = load ptr, ptr %19, align 8
  %82 = call i64 @strlen(ptr noundef %81) #10
  %83 = trunc i64 %82 to i32
  %84 = load ptr, ptr %24, align 8
  %85 = load i32, ptr %23, align 4
  %86 = call i32 @pg_b64_decode(ptr noundef %80, i32 noundef %83, ptr noundef %84, i32 noundef %85)
  store i32 %86, ptr %23, align 4
  %87 = load i32, ptr %23, align 4
  %88 = icmp slt i32 %87, 0
  br i1 %88, label %89, label %90

89:                                               ; preds = %72
  br label %144

90:                                               ; preds = %72
  %91 = load ptr, ptr %19, align 8
  %92 = call ptr @pstrdup(ptr noundef %91)
  %93 = load ptr, ptr %13, align 8
  store ptr %92, ptr %93, align 8
  %94 = load ptr, ptr %21, align 8
  %95 = call i64 @strlen(ptr noundef %94) #10
  %96 = trunc i64 %95 to i32
  %97 = call i32 @pg_b64_dec_len(i32 noundef %96)
  store i32 %97, ptr %23, align 4
  %98 = load i32, ptr %23, align 4
  %99 = sext i32 %98 to i64
  %100 = call ptr @palloc(i64 noundef %99)
  store ptr %100, ptr %25, align 8
  %101 = load ptr, ptr %21, align 8
  %102 = load ptr, ptr %21, align 8
  %103 = call i64 @strlen(ptr noundef %102) #10
  %104 = trunc i64 %103 to i32
  %105 = load ptr, ptr %25, align 8
  %106 = load i32, ptr %23, align 4
  %107 = call i32 @pg_b64_decode(ptr noundef %101, i32 noundef %104, ptr noundef %105, i32 noundef %106)
  store i32 %107, ptr %23, align 4
  %108 = load i32, ptr %23, align 4
  %109 = load ptr, ptr %12, align 8
  %110 = load i32, ptr %109, align 4
  %111 = icmp ne i32 %108, %110
  br i1 %111, label %112, label %113

112:                                              ; preds = %90
  br label %144

113:                                              ; preds = %90
  %114 = load ptr, ptr %14, align 8
  %115 = load ptr, ptr %25, align 8
  %116 = load ptr, ptr %12, align 8
  %117 = load i32, ptr %116, align 4
  %118 = sext i32 %117 to i64
  call void @llvm.memcpy.p0.p0.i64(ptr align 1 %114, ptr align 1 %115, i64 %118, i1 false)
  %119 = load ptr, ptr %22, align 8
  %120 = call i64 @strlen(ptr noundef %119) #10
  %121 = trunc i64 %120 to i32
  %122 = call i32 @pg_b64_dec_len(i32 noundef %121)
  store i32 %122, ptr %23, align 4
  %123 = load i32, ptr %23, align 4
  %124 = sext i32 %123 to i64
  %125 = call ptr @palloc(i64 noundef %124)
  store ptr %125, ptr %26, align 8
  %126 = load ptr, ptr %22, align 8
  %127 = load ptr, ptr %22, align 8
  %128 = call i64 @strlen(ptr noundef %127) #10
  %129 = trunc i64 %128 to i32
  %130 = load ptr, ptr %26, align 8
  %131 = load i32, ptr %23, align 4
  %132 = call i32 @pg_b64_decode(ptr noundef %126, i32 noundef %129, ptr noundef %130, i32 noundef %131)
  store i32 %132, ptr %23, align 4
  %133 = load i32, ptr %23, align 4
  %134 = load ptr, ptr %12, align 8
  %135 = load i32, ptr %134, align 4
  %136 = icmp ne i32 %133, %135
  br i1 %136, label %137, label %138

137:                                              ; preds = %113
  br label %144

138:                                              ; preds = %113
  %139 = load ptr, ptr %15, align 8
  %140 = load ptr, ptr %26, align 8
  %141 = load ptr, ptr %12, align 8
  %142 = load i32, ptr %141, align 4
  %143 = sext i32 %142 to i64
  call void @llvm.memcpy.p0.p0.i64(ptr align 1 %139, ptr align 1 %140, i64 %143, i1 false)
  store i1 true, ptr %8, align 1
  store i32 1, ptr %27, align 4
  br label %146

144:                                              ; preds = %137, %112, %89, %71, %54, %48, %43, %38, %33
  %145 = load ptr, ptr %13, align 8
  store ptr null, ptr %145, align 8
  store i1 false, ptr %8, align 1
  store i32 1, ptr %27, align 4
  br label %146

146:                                              ; preds = %144, %138
  call void @llvm.lifetime.end.p0(i64 8, ptr %26) #9
  call void @llvm.lifetime.end.p0(i64 8, ptr %25) #9
  call void @llvm.lifetime.end.p0(i64 8, ptr %24) #9
  call void @llvm.lifetime.end.p0(i64 4, ptr %23) #9
  call void @llvm.lifetime.end.p0(i64 8, ptr %22) #9
  call void @llvm.lifetime.end.p0(i64 8, ptr %21) #9
  call void @llvm.lifetime.end.p0(i64 8, ptr %20) #9
  call void @llvm.lifetime.end.p0(i64 8, ptr %19) #9
  call void @llvm.lifetime.end.p0(i64 8, ptr %18) #9
  call void @llvm.lifetime.end.p0(i64 8, ptr %17) #9
  call void @llvm.lifetime.end.p0(i64 8, ptr %16) #9
  %147 = load i1, ptr %8, align 1
  ret i1 %147
}