; Function Attrs: nounwind uwtable
define dso_local noundef zeroext i1 @parse_scram_secret(ptr noundef %0, ptr noundef writeonly captures(none) %1, ptr noundef writeonly captures(none) %2, ptr noundef captures(none) %3, ptr noundef writeonly captures(none) initializes((0, 8)) %4, ptr noundef writeonly captures(none) %5, ptr noundef writeonly captures(none) %6) local_unnamed_addr #0 {
  %8 = alloca ptr, align 8
  %9 = alloca ptr, align 8
  call void @llvm.lifetime.start.p0(i64 8, ptr nonnull %8) #13
  call void @llvm.lifetime.start.p0(i64 8, ptr nonnull %9) #13
  %10 = tail call ptr @pstrdup(ptr noundef %0) #13
  store ptr %10, ptr %8, align 8
  %11 = call ptr @strsep(ptr noundef nonnull %8, ptr noundef nonnull @.str.4) #13
  %12 = load ptr, ptr %8, align 8
  %13 = icmp eq ptr %12, null
  br i1 %13, label %70, label %14

14:                                               ; preds = %7
  %15 = call ptr @strsep(ptr noundef nonnull %8, ptr noundef nonnull @.str.5) #13
  %16 = load ptr, ptr %8, align 8
  %17 = icmp eq ptr %16, null
  br i1 %17, label %70, label %18

18:                                               ; preds = %14
  %19 = call ptr @strsep(ptr noundef nonnull %8, ptr noundef nonnull @.str.4) #13
  %20 = load ptr, ptr %8, align 8
  %21 = icmp eq ptr %20, null
  br i1 %21, label %70, label %22

22:                                               ; preds = %18
  %23 = call ptr @strsep(ptr noundef nonnull %8, ptr noundef nonnull @.str.5) #13
  %24 = load ptr, ptr %8, align 8
  %25 = icmp eq ptr %24, null
  br i1 %25, label %70, label %26

26:                                               ; preds = %22
  %27 = call i32 @strcmp(ptr noundef nonnull dereferenceable(1) %11, ptr noundef nonnull dereferenceable(14) @.str.6) #14
  %.not = icmp eq i32 %27, 0
  br i1 %.not, label %28, label %70

28:                                               ; preds = %26
  store i32 3, ptr %2, align 4
  store i32 32, ptr %3, align 4
  %29 = tail call ptr @__errno_location() #16
  store i32 0, ptr %29, align 4
  %30 = call i64 @strtol(ptr noundef %15, ptr noundef nonnull %9, i32 noundef 10) #13
  %31 = trunc i64 %30 to i32
  store i32 %31, ptr %1, align 4
  %32 = load ptr, ptr %9, align 8
  %33 = load i8, ptr %32, align 1
  %.not41 = icmp eq i8 %33, 0
  br i1 %.not41, label %34, label %70

34:                                               ; preds = %28
  %35 = load i32, ptr %29, align 4
  %.not42 = icmp eq i32 %35, 0
  br i1 %.not42, label %36, label %70

36:                                               ; preds = %34
  %37 = call i64 @strlen(ptr noundef nonnull dereferenceable(1) %19) #14
  %38 = trunc i64 %37 to i32
  %39 = call i32 @pg_b64_dec_len(i32 noundef %38) #13
  %40 = sext i32 %39 to i64
  %41 = call ptr @palloc(i64 noundef %40) #13
  %42 = call i64 @strlen(ptr noundef nonnull dereferenceable(1) %19) #14
  %43 = trunc i64 %42 to i32
  %44 = call i32 @pg_b64_decode(ptr noundef nonnull %19, i32 noundef %43, ptr noundef %41, i32 noundef %39) #13
  %45 = icmp slt i32 %44, 0
  br i1 %45, label %70, label %46

46:                                               ; preds = %36
  %47 = call ptr @pstrdup(ptr noundef nonnull %19) #13
  store ptr %47, ptr %4, align 8
  %48 = call i64 @strlen(ptr noundef nonnull dereferenceable(1) %23) #14
  %49 = trunc i64 %48 to i32
  %50 = call i32 @pg_b64_dec_len(i32 noundef %49) #13
  %51 = sext i32 %50 to i64
  %52 = call ptr @palloc(i64 noundef %51) #13
  %53 = call i64 @strlen(ptr noundef nonnull dereferenceable(1) %23) #14
  %54 = trunc i64 %53 to i32
  %55 = call i32 @pg_b64_decode(ptr noundef nonnull %23, i32 noundef %54, ptr noundef %52, i32 noundef %50) #13
  %56 = load i32, ptr %3, align 4
  %.not43 = icmp eq i32 %55, %56
  br i1 %.not43, label %57, label %70

57:                                               ; preds = %46
  %58 = sext i32 %55 to i64
  call void @llvm.memcpy.p0.p0.i64(ptr align 1 %5, ptr align 1 %52, i64 %58, i1 false)
  %59 = call i64 @strlen(ptr noundef nonnull dereferenceable(1) %24) #14
  %60 = trunc i64 %59 to i32
  %61 = call i32 @pg_b64_dec_len(i32 noundef %60) #13
  %62 = sext i32 %61 to i64
  %63 = call ptr @palloc(i64 noundef %62) #13
  %64 = call i64 @strlen(ptr noundef nonnull dereferenceable(1) %24) #14
  %65 = trunc i64 %64 to i32
  %66 = call i32 @pg_b64_decode(ptr noundef nonnull %24, i32 noundef %65, ptr noundef %63, i32 noundef %61) #13
  %67 = load i32, ptr %3, align 4
  %.not44 = icmp eq i32 %66, %67
  br i1 %.not44, label %68, label %70

68:                                               ; preds = %57
  %69 = sext i32 %66 to i64
  call void @llvm.memcpy.p0.p0.i64(ptr align 1 %6, ptr align 1 %63, i64 %69, i1 false)
  br label %71

70:                                               ; preds = %57, %46, %36, %28, %34, %26, %22, %18, %14, %7
  store ptr null, ptr %4, align 8
  br label %71

71:                                               ; preds = %70, %68
  %.0 = phi i1 [ false, %70 ], [ true, %68 ]
  call void @llvm.lifetime.end.p0(i64 8, ptr nonnull %9) #13
  call void @llvm.lifetime.end.p0(i64 8, ptr nonnull %8) #13
  ret i1 %.0
}